(lp0
Vfamili
p1
aVorgan
p2
aVand
p3
aVcare
p4
aVplace
p5
aVquantum
p6
aVturn
p7
aVask
p8
aVnever
p9
aVmayb
p10
aVlet
p11
aVbrain
p12
aVanim
p13
aVmade
p14
aVair
p15
aVeveri
p16
aVmight
p17
aVdie
p18
aVmateri
p19
aVage
p20
aVstori
p21
aVcarbon
p22
aVcell
p23
aVtalk
p24
aValso
p25
aVocean
p26
aVlove
p27
aVlot
p28
aVbodi
p29
aVhappen
p30
aVgot
p31
aVcall
p32
aVmani
p33
aVmean
p34
aVsystem
p35
aVmother
p36
aVfind
p37
aVgene
p38
aVgood
p39
aVstar
p40
aVmuch
p41
aVtri
p42
aVlittl
p43
aVtechnolog
p44
aVtell
p45
aVdiffer
p46
aVnatur
p47
aVchang
p48
aVstart
p49
aVkind
p50
aVcome
p51
aVnew
p52
aVright
p53
aVtwo
p54
aVsay
p55
aVsaid
p56
aVworld
p57
aVplant
p58
aVhuman
p59
aVfirst
p60
aVneed
p61
aVwater
p62
aVback
p63
aVsometh
p64
aVeven
p65
aVtake
p66
aVpollen
p67
aVspeci
p68
aVday
p69
aVuse
p70
aVwell
p71
aVwork
p72
aVearth
p73
aVmake
p74
aVlive
p75
aVway
p76
aVwant
p77
aVmar
p78
aVactual
p79
aVwould
p80
aVcould
p81
aVsee
p82
aVlaughter
p83
aVplanet
p84
aVrealli
p85
aVlook
p86
aVknow
p87
aVthink
p88
aVus
p89
aVthing
p90
aVtime
p91
aVget
p92
aVpeopl
p93
aVyear
p94
aVgo
p95
aVre
p96
aVone
p97
aVlife
p98
aVlike
p99
aS'unk'
p100
a.