(lp0
Vday
p1
aVhappen
p2
aVplant
p3
aVplay
p4
aVplace
p5
aVant
p6
aVdrone
p7
aVsystem
p8
aVbig
p9
aVfemal
p10
aVtapir
p11
aVsay
p12
aVbabi
p13
aVmale
p14
aVcell
p15
aVair
p16
aVbodi
p17
aVmother
p18
aVtwo
p19
aVeinstein
p20
aVsometh
p21
aVshow
p22
aVaround
p23
aVbear
p24
aVdolphin
p25
aVput
p26
aVtell
p27
aVdinosaur
p28
aVtri
p29
aVwhale
p30
aVchang
p31
aVkind
p32
aVsound
p33
aVcancer
p34
aVbat
p35
aVcall
p36
aVlife
p37
aVshark
p38
aVneed
p39
aVnatur
p40
aVlittl
p41
aVmuch
p42
aVfind
p43
aVbrain
p44
aVfli
p45
aVlot
p46
aVfirst
p47
aVright
p48
aVwater
p49
aVback
p50
aVrobot
p51
aVtake
p52
aVnew
p53
aVmani
p54
aVforest
p55
aVfish
p56
aVeven
p57
aVgot
p58
aVlive
p59
aVcome
p60
aVworld
p61
aVwork
p62
aVstart
p63
aValso
p64
aVwell
p65
aVdiffer
p66
aVcould
p67
aVbee
p68
aVwant
p69
aVpenguin
p70
aVmake
p71
aVspeci
p72
aVway
p73
aVocean
p74
aVdog
p75
aVus
p76
aVwould
p77
aVsw
p78
aVhuman
p79
aVpeopl
p80
aVactual
p81
aVthing
p82
aVknow
p83
aVheh
p84
aVuse
p85
aVyear
p86
aVthink
p87
aVtime
p88
aVcoral
p89
aVrealli
p90
aVlook
p91
aVlaughter
p92
aVget
p93
aVsee
p94
aVanim
p95
aVgo
p96
aVre
p97
aVone
p98
aVlike
p99
aS'unk'
p100
a.