(lp0
Vspace
p1
aVattack
p2
aVmodel
p3
aVfind
p4
aVlive
p5
aVquestion
p6
aVmean
p7
aVai
p8
aVintellig
p9
aVonlin
p10
aVlife
p11
aVmani
p12
aVtoday
p13
aVsaid
p14
aVreal
p15
aVday
p16
aVlittl
p17
aVexampl
p18
aVlight
p19
aVtwo
p20
aVinternet
p21
aVmap
p22
aVinteract
p23
aVdigit
p24
aVmove
p25
aVhappen
p26
aVplay
p27
aVphysic
p28
aVproject
p29
aVidea
p30
aVcode
p31
aVgot
p32
aVdesign
p33
aVcome
p34
aVcreat
p35
aVproblem
p36
aVaround
p37
aVmuch
p38
aVlot
p39
aVneed
p40
aVeveri
p41
aVobject
p42
aVlet
p43
aVshow
p44
aValso
p45
aVchang
p46
aVtri
p47
aVbrain
p48
aVkind
p49
aVeven
p50
aVinform
p51
aVwell
p52
aVgame
p53
aVbuild
p54
aVsometh
p55
aVsay
p56
aVcall
p57
aVvideo
p58
aVfirst
p59
aVright
p60
aVstart
p61
aVdiffer
p62
aVimag
p63
aVlearn
p64
aVtake
p65
aVsystem
p66
aVrobot
p67
aVmachin
p68
aVstudent
p69
aVway
p70
aVnew
p71
aVlaughter
p72
aVwant
p73
aVdata
p74
aVtechnolog
p75
aVmake
p76
aVcould
p77
aVthink
p78
aVrealli
p79
aVwork
p80
aVknow
p81
aVus
p82
aVwould
p83
aVlook
p84
aVactual
p85
aVyear
p86
aVworld
p87
aVtime
p88
aVsee
p89
aVget
p90
aVpeopl
p91
aVhuman
p92
aVthing
p93
aVuse
p94
aVcomput
p95
aVone
p96
aVgo
p97
aVlike
p98
aVre
p99
aS'unk'
p100
a.