(lp0
Vexperi
p1
aVsort
p2
aVstill
p3
aVthank
p4
aVtalk
p5
aVput
p6
aVdata
p7
aVfilm
p8
aVair
p9
aVplace
p10
aVask
p11
aVmove
p12
aVinterest
p13
aVbook
p14
aVmean
p15
aVcolor
p16
aVbuild
p17
aVfeel
p18
aVbodi
p19
aVfind
p20
aVdanc
p21
aVeveri
p22
aVlet
p23
aVlot
p24
aVmani
p25
aVpiec
p26
aVaround
p27
aVeven
p28
aVsound
p29
aVlove
p30
aVwell
p31
aVback
p32
aVhuman
p33
aVgot
p34
aVspace
p35
aVchang
p36
aVtri
p37
aVtwo
p38
aVplay
p39
aVmuch
p40
aVmade
p41
aVidea
p42
aVfirst
p43
aVsaid
p44
aVvideo
p45
aVshow
p46
aVsay
p47
aVday
p48
aVimag
p49
aVproject
p50
aVcall
p51
aVlive
p52
aVlittl
p53
aVdiffer
p54
aVguitar
p55
aVlight
p56
aVcreat
p57
aVlife
p58
aVright
p59
aVcome
p60
aVtake
p61
aVend
p62
aVsometh
p63
aValso
p64
aVartist
p65
aVkind
p66
aVstori
p67
aVdesign
p68
aVapplaus
p69
aVus
p70
aVget
p71
aVworld
p72
aVnew
p73
aVcould
p74
aVpaint
p75
aVactual
p76
aVwant
p77
aVart
p78
aVknow
p79
aVuse
p80
aVstart
p81
aVyear
p82
aVway
p83
aVtime
p84
aVwould
p85
aVmake
p86
aVthing
p87
aVlook
p88
aVrealli
p89
aVthink
p90
aVlaughter
p91
aVwork
p92
aVre
p93
aVsee
p94
aVpeopl
p95
aVgo
p96
aVone
p97
aVmusic
p98
aVlike
p99
aS'unk'
p100
a.