(lp0
Vgood
p1
aVlive
p2
aVlearn
p3
aVthank
p4
aVca
p5
aVbrain
p6
aVpiec
p7
aVkid
p8
aVcar
p9
aVdevelop
p10
aVabl
p11
aVair
p12
aVdrug
p13
aVdevic
p14
aVengin
p15
aVmani
p16
aVmateri
p17
aVmade
p18
aVmean
p19
aVcall
p20
aVsolar
p21
aVvideo
p22
aVelectr
p23
aVsaid
p24
aVidea
p25
aVpower
p26
aVsay
p27
aVfli
p28
aVshow
p29
aVpatient
p30
aVday
p31
aVprint
p32
aVback
p33
aVaround
p34
aVmachin
p35
aVdata
p36
aVlet
p37
aVrobot
p38
aVeven
p39
aVcreat
p40
aVbodi
p41
aVsystem
p42
aVtri
p43
aVkind
p44
aVput
p45
aVtwo
p46
aVenergi
p47
aVproject
p48
aVcome
p49
aVmuch
p50
aVsometh
p51
aVhuman
p52
aVdesign
p53
aVdiffer
p54
aVbuild
p55
aVapplaus
p56
aVcomput
p57
aVright
p58
aVlittl
p59
aVcancer
p60
aVlight
p61
aVwell
p62
aVgot
p63
aValso
p64
aVproblem
p65
aVneed
p66
aVtechnolog
p67
aVlot
p68
aVfirst
p69
aVnew
p70
aVtake
p71
aVstart
p72
aVknow
p73
aVcell
p74
aVwould
p75
aVus
p76
aVwant
p77
aVway
p78
aVlook
p79
aVworld
p80
aVtime
p81
aVwater
p82
aVyear
p83
aVlaughter
p84
aVactual
p85
aVthink
p86
aVwork
p87
aVsee
p88
aVrealli
p89
aVcould
p90
aVget
p91
aVthing
p92
aVpeopl
p93
aVmake
p94
aVuse
p95
aVone
p96
aVlike
p97
aVgo
p98
aVre
p99
aS'unk'
p100
a.