(lp0
Vbig
p1
aVnext
p2
aVlive
p3
aVday
p4
aVlab
p5
aVmean
p6
aVhappen
p7
aVvoic
p8
aVdevelop
p9
aVmade
p10
aVplace
p11
aVstudent
p12
aVapplaus
p13
aVtalk
p14
aVshow
p15
aVmagnet
p16
aVmani
p17
aVabl
p18
aVdevic
p19
aVtri
p20
aVplant
p21
aVspider
p22
aVproduct
p23
aVeven
p24
aVsay
p25
aVcreat
p26
aVback
p27
aVgene
p28
aVchang
p29
aVidea
p30
aVearth
p31
aVsometh
p32
aVmove
p33
aVaround
p34
aVproject
p35
aVsilk
p36
aVcall
p37
aVkind
p38
aVproblem
p39
aVpower
p40
aVciti
p41
aVspace
p42
aVgot
p43
aVenergi
p44
aVlet
p45
aVdrug
p46
aVlittl
p47
aVright
p48
aVmuch
p49
aVdiffer
p50
aVknow
p51
aVtwo
p52
aVcome
p53
aVmar
p54
aVdesign
p55
aVlot
p56
aVstart
p57
aVwell
p58
aVmachin
p59
aVfirst
p60
aVsystem
p61
aVtechnolog
p62
aValso
p63
aVengin
p64
aVcomput
p65
aVtake
p66
aVbuild
p67
aVhuman
p68
aVnew
p69
aVlaughter
p70
aVlook
p71
aVbrain
p72
aVneed
p73
aVcell
p74
aVus
p75
aVworld
p76
aVwant
p77
aVyear
p78
aVforest
p79
aVthink
p80
aVwater
p81
aVway
p82
aVtime
p83
aVwork
p84
aVwould
p85
aVpeopl
p86
aVcould
p87
aVactual
p88
aVsee
p89
aVrealli
p90
aVthing
p91
aVget
p92
aVmake
p93
aVuse
p94
aVone
p95
aVrobot
p96
aVlike
p97
aVre
p98
aVgo
p99
aS'unk'
p100
a.