(lp0
Vincom
p1
aVenergi
p2
aVmillion
p3
aVlittl
p4
aVquestion
p5
aVtell
p6
aVbillion
p7
aVsometh
p8
aVdata
p9
aVtechnolog
p10
aVinvest
p11
aVafrica
p12
aVdevelop
p13
aVback
p14
aVsocial
p15
aVwomen
p16
aVlife
p17
aVidea
p18
aVpower
p19
aVvalu
p20
aVcall
p21
aVaround
p22
aVtalk
p23
aVcost
p24
aVmean
p25
aVgive
p26
aVday
p27
aVproblem
p28
aVsave
p29
aVproduct
p30
aVkind
p31
aVeveri
p32
aVcome
p33
aVbusi
p34
aVstori
p35
aVgood
p36
aVgovern
p37
aVjob
p38
aVfirst
p39
aVhappen
p40
aVdiffer
p41
aVmarket
p42
aVtoday
p43
aVcompani
p44
aVstate
p45
aVcreat
p46
aVstart
p47
aVglobal
p48
aVsystem
p49
aVsaid
p50
aVlot
p51
aVeconomi
p52
aVright
p53
aVeven
p54
aVmani
p55
aVhuman
p56
aVlaughter
p57
aVchang
p58
aVlet
p59
aVlive
p60
aVtake
p61
aVsay
p62
aVnew
p63
aVdollar
p64
aValso
p65
aVcould
p66
aVmuch
p67
aVtwo
p68
aVeconom
p69
aVchina
p70
aVuse
p71
aVlook
p72
aVwell
p73
aVrealli
p74
aVway
p75
aVwant
p76
aVgrowth
p77
aVneed
p78
aVmake
p79
aVmoney
p80
aVsee
p81
aVknow
p82
aVthing
p83
aVtime
p84
aVpercent
p85
aVactual
p86
aVus
p87
aVwork
p88
aVwould
p89
aVcountri
p90
aVget
p91
aVyear
p92
aVworld
p93
aVthink
p94
aVlike
p95
aVone
p96
aVgo
p97
aVre
p98
aVpeopl
p99
aS'unk'
p100
a.