(lp0
Vlet
p1
aVobject
p2
aVca
p3
aVmani
p4
aVmight
p5
aVform
p6
aVquestion
p7
aVtrailer
p8
aVcoral
p9
aVshow
p10
aVfutur
p11
aVtell
p12
aVdiscov
p13
aVcell
p14
aVfound
p15
aVgot
p16
aVsay
p17
aVasteroid
p18
aVsatellit
p19
aVatmospher
p20
aVblack
p21
aVneed
p22
aVrw
p23
aVdesign
p24
aVsurfac
p25
aVparticl
p26
aVtri
p27
aVhole
p28
aVsystem
p29
aVkind
p30
aVsometh
p31
aVhigg
p32
aVday
p33
aVidea
p34
aVimag
p35
aVhuman
p36
aVdiffer
p37
aVlot
p38
aVmuch
p39
aVstart
p40
aVspeci
p41
aVcome
p42
aVshark
p43
aVwell
p44
aVright
p45
aVanim
p46
aValso
p47
aVlive
p48
aVaround
p49
aVtake
p50
aVcall
p51
aVice
p52
aVeven
p53
aVlittl
p54
aVtelescop
p55
aVexplor
p56
aVenergi
p57
aVunivers
p58
aVtwo
p59
aVback
p60
aVmake
p61
aVspace
p62
aVplace
p63
aVfirst
p64
aVfind
p65
aVwant
p66
aVocean
p67
aVwater
p68
aVway
p69
aVlaughter
p70
aVcould
p71
aVworld
p72
aVnew
p73
aVpeopl
p74
aVrealli
p75
aVactual
p76
aVlight
p77
aVthink
p78
aVwork
p79
aVuse
p80
aVknow
p81
aVstar
p82
aVwould
p83
aVcave
p84
aVthing
p85
aVlife
p86
aVget
p87
aVlook
p88
aVus
p89
aVyear
p90
aVearth
p91
aVtime
p92
aVmar
p93
aVplanet
p94
aVsee
p95
aVre
p96
aVgo
p97
aVone
p98
aVlike
p99
aS'unk'
p100
a.