(lp0
Vyoung
p1
aVclassroom
p2
aVclass
p3
aVtechnolog
p4
aVgive
p5
aVtell
p6
aVhelp
p7
aVhigh
p8
aVmean
p9
aVmade
p10
aVdesign
p11
aVback
p12
aVtalk
p13
aVmathemat
p14
aVcolleg
p15
aVsystem
p16
aVtri
p17
aVthree
p18
aVkind
p19
aVlive
p20
aVscienc
p21
aVcomput
p22
aValso
p23
aVhappen
p24
aVcall
p25
aVidea
p26
aVlet
p27
aVcountri
p28
aVchang
p29
aVmuch
p30
aVgot
p31
aVgood
p32
aVask
p33
aVvideo
p34
aVproblem
p35
aVdiffer
p36
aVfirst
p37
aVbuild
p38
aVproject
p39
aVquestion
p40
aVpercent
p41
aVput
p42
aVlot
p43
aVsometh
p44
aVeven
p45
aVlife
p46
aVlittl
p47
aVapplaus
p48
aVgame
p49
aVwomen
p50
aVmani
p51
aVteach
p52
aVnew
p53
aVtwo
p54
aVactual
p55
aVsw
p56
aVeveri
p57
aVtake
p58
aVcome
p59
aVplay
p60
aVwell
p61
aVuse
p62
aVday
p63
aVright
p64
aVcould
p65
aVgirl
p66
aVstart
p67
aVus
p68
aVlook
p69
aVway
p70
aVneed
p71
aVsay
p72
aVsaid
p73
aVsee
p74
aVwork
p75
aVchildren
p76
aVrealli
p77
aVwant
p78
aVworld
p79
aVteacher
p80
aVtime
p81
aVmake
p82
aVthink
p83
aVlaughter
p84
aVwould
p85
aVyear
p86
aVeduc
p87
aVthing
p88
aVlearn
p89
aVknow
p90
aVget
p91
aVstudent
p92
aVpeopl
p93
aVre
p94
aVkid
p95
aVlike
p96
aVone
p97
aVgo
p98
aVschool
p99
aS'unk'
p100
a.