(lp0
Vvaccin
p1
aVlet
p2
aVput
p3
aVgenom
p4
aVgood
p5
aVdata
p6
aVsometh
p7
aVlot
p8
aVhappen
p9
aVdevelop
p10
aVcountri
p11
aVtreatment
p12
aVmother
p13
aVchang
p14
aVclinic
p15
aVmean
p16
aVtrial
p17
aVpercent
p18
aVback
p19
aVmuch
p20
aVstem
p21
aVtest
p22
aVtell
p23
aVeveri
p24
aVbrain
p25
aVhuman
p26
aVheart
p27
aVblood
p28
aVlaughter
p29
aVcall
p30
aVdie
p31
aVtechnolog
p32
aValso
p33
aVresearch
p34
aVtwo
p35
aVbodi
p36
aVsurgeri
p37
aVhelp
p38
aVday
p39
aVhospit
p40
aVfirst
p41
aVblack
p42
aVmedicin
p43
aVcome
p44
aVdiffer
p45
aVgot
p46
aVnew
p47
aVhiv
p48
aVeven
p49
aVpatent
p50
aVsystem
p51
aVtalk
p52
aVcommun
p53
aVmani
p54
aVright
p55
aVstart
p56
aVsay
p57
aVbabi
p58
aVsaid
p59
aVworld
p60
aVlife
p61
aVwell
p62
aVproblem
p63
aVlive
p64
aVmedic
p65
aVtake
p66
aVdoctor
p67
aVdiseas
p68
aVwomen
p69
aVlook
p70
aVway
p71
aVuse
p72
aVthink
p73
aVcare
p74
aVrealli
p75
aVwould
p76
aVus
p77
aVsee
p78
aVwork
p79
aVwant
p80
aVneed
p81
aVmake
p82
aVthing
p83
aVtime
p84
aVactual
p85
aVcould
p86
aVknow
p87
aVdrug
p88
aVyear
p89
aVcancer
p90
aVget
p91
aVhealth
p92
aVcell
p93
aVpeopl
p94
aVpatient
p95
aVre
p96
aVlike
p97
aVone
p98
aVgo
p99
aS'unk'
p100
a.