(lp0
Vpercent
p1
aVunderstand
p2
aVchildren
p3
aVapplaus
p4
aVearth
p5
aVtoday
p6
aVmen
p7
aVnever
p8
aVever
p9
aVglobal
p10
aVperson
p11
aVquestion
p12
aVlot
p13
aVlittl
p14
aVmar
p15
aVbabi
p16
aVlet
p17
aVaround
p18
aVca
p19
aVfind
p20
aVtri
p21
aVlearn
p22
aVmight
p23
aVbrain
p24
aVfutur
p25
aVbuild
p26
aVage
p27
aVwater
p28
aVdata
p29
aVcommun
p30
aVcare
p31
aVback
p32
aVnew
p33
aVblack
p34
aVproblem
p35
aVhelp
p36
aVgood
p37
aVhappen
p38
aVexperi
p39
aVcall
p40
aVkind
p41
aVdiffer
p42
aVmean
p43
aVtwo
p44
aVmuch
p45
aVtell
p46
aVsometh
p47
aVask
p48
aVhealth
p49
aVstart
p50
aVeveri
p51
aValso
p52
aVfamili
p53
aVfeel
p54
aVwell
p55
aVmani
p56
aVcome
p57
aVfirst
p58
aVtake
p59
aVactual
p60
aVstori
p61
aVsaid
p62
aVlove
p63
aVtalk
p64
aVcountri
p65
aVright
p66
aVuse
p67
aVchang
p68
aVeven
p69
aVneed
p70
aVday
p71
aVrealli
p72
aVsay
p73
aVlook
p74
aVway
p75
aVsee
p76
aVwant
p77
aVlife
p78
aVcould
p79
aVmake
p80
aVthing
p81
aVwork
p82
aVlive
p83
aVwomen
p84
aVget
p85
aVhuman
p86
aVwould
p87
aVlaughter
p88
aVworld
p89
aVknow
p90
aVtime
p91
aVthink
p92
aVyear
p93
aVgo
p94
aVus
p95
aVone
p96
aVre
p97
aVlike
p98
aVpeopl
p99
aS'unk'
p100
a.