(lp0
Vabl
p1
aVmade
p2
aVpart
p3
aVperson
p4
aVmove
p5
aVcancer
p6
aVpower
p7
aVtell
p8
aVgood
p9
aVimag
p10
aVca
p11
aVplanet
p12
aVfind
p13
aVpercent
p14
aVenergi
p15
aVvideo
p16
aVmean
p17
aVlearn
p18
aVtoday
p19
aVmani
p20
aVtalk
p21
aVsaid
p22
aVidea
p23
aVlife
p24
aVdesign
p25
aVput
p26
aVeveri
p27
aVtri
p28
aVaround
p29
aVday
p30
aVinform
p31
aVcar
p32
aVlight
p33
aVhappen
p34
aVlet
p35
aVback
p36
aVwater
p37
aVshow
p38
aVlive
p39
aVchang
p40
aVproblem
p41
aVbuild
p42
aVmachin
p43
aVmuch
p44
aVeven
p45
aVgot
p46
aVkind
p47
aVcell
p48
aVsay
p49
aVdiffer
p50
aVlot
p51
aVcome
p52
aVcreat
p53
aVtwo
p54
aVfirst
p55
aVcall
p56
aVsystem
p57
aVsometh
p58
aValso
p59
aVlittl
p60
aVapplaus
p61
aVwell
p62
aVcomput
p63
aVbrain
p64
aVstart
p65
aVneed
p66
aVhuman
p67
aVdata
p68
aVnew
p69
aVright
p70
aVtake
p71
aVtechnolog
p72
aVrobot
p73
aVlaughter
p74
aVway
p75
aVworld
p76
aVwork
p77
aVmusic
p78
aVwant
p79
aVcould
p80
aVus
p81
aVwould
p82
aVknow
p83
aVlook
p84
aVactual
p85
aVrealli
p86
aVmake
p87
aVtime
p88
aVyear
p89
aVthink
p90
aVget
p91
aVsee
p92
aVuse
p93
aVthing
p94
aVpeopl
p95
aVone
p96
aVlike
p97
aVgo
p98
aVre
p99
aS'unk'
p100
a.