(lp0
Vnever
p1
aVpower
p2
aVstate
p3
aVand
p4
aVgreat
p5
aVthank
p6
aVhelp
p7
aVexperi
p8
aVplace
p9
aVwent
p10
aVput
p11
aVgive
p12
aVpercent
p13
aVperson
p14
aVfind
p15
aVquestion
p16
aVcreat
p17
aVkid
p18
aVciti
p19
aVthree
p20
aVcountri
p21
aVfamili
p22
aVlet
p23
aVaround
p24
aVmen
p25
aVlearn
p26
aVask
p27
aVdesign
p28
aVshow
p29
aVschool
p30
aVtri
p31
aVmean
p32
aVchildren
p33
aVhuman
p34
aVplay
p35
aVeveri
p36
aVlot
p37
aVlove
p38
aVidea
p39
aVmani
p40
aVlittl
p41
aVtell
p42
aVback
p43
aVfeel
p44
aVchang
p45
aVhappen
p46
aVdiffer
p47
aVwomen
p48
aVgood
p49
aVfirst
p50
aVkind
p51
aVmuch
p52
aVstori
p53
aValso
p54
aVstart
p55
aVcall
p56
aVeven
p57
aVtwo
p58
aVsometh
p59
aVgot
p60
aVtake
p61
aVtalk
p62
aVnew
p63
aVday
p64
aVwell
p65
aVneed
p66
aVlive
p67
aVuse
p68
aVactual
p69
aVlife
p70
aVcould
p71
aVcome
p72
aVright
p73
aVsaid
p74
aVwork
p75
aVmake
p76
aVway
p77
aVsee
p78
aVrealli
p79
aVsay
p80
aVlook
p81
aVworld
p82
aVwould
p83
aVwant
p84
aVus
p85
aVyear
p86
aVapplaus
p87
aVget
p88
aVtime
p89
aVlaughter
p90
aVthing
p91
aVknow
p92
aVthink
p93
aVre
p94
aVmusic
p95
aVlike
p96
aVgo
p97
aVone
p98
aVpeopl
p99
aS'unk'
p100
a.