(lp0
Vgood
p1
aVchang
p2
aVgive
p3
aVcomput
p4
aVfeel
p5
aVcompani
p6
aVmean
p7
aVspace
p8
aVplace
p9
aVsort
p10
aVcreativ
p11
aVlearn
p12
aVquestion
p13
aVtalk
p14
aVartist
p15
aVthank
p16
aVtell
p17
aVhappen
p18
aVask
p19
aVaround
p20
aVexperi
p21
aVschool
p22
aVlove
p23
aVput
p24
aVeveri
p25
aVhuman
p26
aVmani
p27
aVlet
p28
aVsound
p29
aVkid
p30
aVgot
p31
aVdiffer
p32
aVwell
p33
aVshow
p34
aVmuch
p35
aVlive
p36
aVpaint
p37
aVneed
p38
aVeven
p39
aVback
p40
aVtwo
p41
aVproject
p42
aVday
p43
aVmade
p44
aVfirst
p45
aVtri
p46
aVlife
p47
aVlot
p48
aVimag
p49
aVcreat
p50
aVbuild
p51
aVsaid
p52
aValso
p53
aVword
p54
aVkind
p55
aVcome
p56
aVright
p57
aVplay
p58
aVcall
p59
aVart
p60
aVlittl
p61
aVstori
p62
aVdesign
p63
aVidea
p64
aVtake
p65
aVguitar
p66
aVbook
p67
aVend
p68
aVsometh
p69
aVnew
p70
aVus
p71
aVsay
p72
aVuse
p73
aVworld
p74
aVcould
p75
aVway
p76
aVwant
p77
aVyear
p78
aVactual
p79
aVsee
p80
aVlook
p81
aVtime
p82
aVget
p83
aVrealli
p84
aVstart
p85
aVknow
p86
aVwould
p87
aVwork
p88
aVmake
p89
aVthink
p90
aVlaughter
p91
aVthing
p92
aVpeopl
p93
aVre
p94
aVapplaus
p95
aVgo
p96
aVone
p97
aVlike
p98
aVmusic
p99
aS'unk'
p100
a.