(lp0
Vca
p1
aVnatur
p2
aVkid
p3
aVpart
p4
aVsound
p5
aVcar
p6
aVbodi
p7
aVinform
p8
aVthree
p9
aVproduct
p10
aVplay
p11
aVdata
p12
aVgreat
p13
aVhappen
p14
aVeveri
p15
aVlife
p16
aVtalk
p17
aVmean
p18
aVgame
p19
aVgood
p20
aVbook
p21
aVplace
p22
aVmove
p23
aVvideo
p24
aVproblem
p25
aVmani
p26
aVlet
p27
aVmateri
p28
aVtri
p29
aVday
p30
aVmade
p31
aVsaid
p32
aVeven
p33
aVaround
p34
aVhuman
p35
aVcomput
p36
aVmusic
p37
aVchang
p38
aVput
p39
aVproject
p40
aVback
p41
aVshow
p42
aVsystem
p43
aVsay
p44
aVcall
p45
aVtechnolog
p46
aVapplaus
p47
aVlight
p48
aVlive
p49
aVmuch
p50
aVdiffer
p51
aVtwo
p52
aVwell
p53
aVgot
p54
aVspace
p55
aVidea
p56
aVlot
p57
aVfirst
p58
aVsometh
p59
aVtake
p60
aVright
p61
aVcome
p62
aVlittl
p63
aVrobot
p64
aVcreat
p65
aVneed
p66
aValso
p67
aVstart
p68
aVkind
p69
aVwater
p70
aVus
p71
aVworld
p72
aVnew
p73
aVciti
p74
aVcould
p75
aVway
p76
aVknow
p77
aVyear
p78
aVwant
p79
aVtime
p80
aVlaughter
p81
aVbuild
p82
aVwould
p83
aVlook
p84
aVactual
p85
aVget
p86
aVwork
p87
aVthink
p88
aVrealli
p89
aVmake
p90
aVuse
p91
aVsee
p92
aVthing
p93
aVdesign
p94
aVpeopl
p95
aVre
p96
aVgo
p97
aVone
p98
aVlike
p99
aS'unk'
p100
a.