(lp0
Vproduc
p1
aVand
p2
aVindustri
p3
aVpower
p4
aVmillion
p5
aVglobal
p6
aVshow
p7
aVgood
p8
aVice
p9
aVkind
p10
aVsay
p11
aVbee
p12
aVcommun
p13
aVfind
p14
aVlittl
p15
aVhappen
p16
aVeveri
p17
aVtell
p18
aVcall
p19
aVcreat
p20
aVmani
p21
aVsometh
p22
aVtoday
p23
aVcountri
p24
aVaround
p25
aVriver
p26
aVplastic
p27
aVtwo
p28
aVproblem
p29
aVgot
p30
aVgrow
p31
aVpollen
p32
aVdiffer
p33
aVfirst
p34
aVback
p35
aVoil
p36
aVday
p37
aVlife
p38
aVplace
p39
aVnatur
p40
aVright
p41
aVhuman
p42
aVsystem
p43
aVcarbon
p44
aVciti
p45
aVmuch
p46
aVeven
p47
aVcome
p48
aVair
p49
aVfish
p50
aVlot
p51
aVstart
p52
aVwell
p53
aVtake
p54
aVpercent
p55
aVtree
p56
aVlive
p57
aVspeci
p58
aVocean
p59
aVnew
p60
aValso
p61
aVclimat
p62
aVwant
p63
aVanim
p64
aVwork
p65
aVplanet
p66
aVbuild
p67
aVcoral
p68
aVenergi
p69
aVearth
p70
aVlaughter
p71
aVfood
p72
aVactual
p73
aVcould
p74
aVway
p75
aVforest
p76
aVknow
p77
aVchang
p78
aVneed
p79
aVwould
p80
aVmake
p81
aVrealli
p82
aVthing
p83
aVlook
p84
aVuse
p85
aVus
p86
aVworld
p87
aVplant
p88
aVtime
p89
aVget
p90
aVthink
p91
aVsee
p92
aVpeopl
p93
aVwater
p94
aVyear
p95
aVone
p96
aVgo
p97
aVlike
p98
aVre
p99
aS'unk'
p100
a.