(lp0
Vhand
p1
aVtowel
p2
aVwent
p3
aVlive
p4
aVword
p5
aVidea
p6
aVsuccess
p7
aVcreativ
p8
aVlife
p9
aVrw
p10
aVthought
p11
aVfour
p12
aVmultitask
p13
aValso
p14
aVput
p15
aVca
p16
aVperson
p17
aVlaugh
p18
aVnumber
p19
aVname
p20
aVeveri
p21
aVthree
p22
aVhappen
p23
aVneed
p24
aVawesom
p25
aVworld
p26
aVtell
p27
aVyeah
p28
aVtri
p29
aVflag
p30
aVlove
p31
aVdiffer
p32
aVpaper
p33
aVmean
p34
aVback
p35
aVeven
p36
aVshow
p37
aVwell
p38
aVkind
p39
aVtake
p40
aVgreat
p41
aVmuch
p42
aVfold
p43
aVguy
p44
aVfirst
p45
aVcome
p46
aVlot
p47
aVnew
p48
aVactual
p49
aVcall
p50
aVmoment
p51
aVsorri
p52
aVtalk
p53
aVday
p54
aVgot
p55
aVwork
p56
aVtwo
p57
aVuse
p58
aVsometh
p59
aVgood
p60
aVever
p61
aVlittl
p62
aVway
p63
aVus
p64
aVbf
p65
aVmusic
p66
aVdh
p67
aVoh
p68
aVdesign
p69
aVlet
p70
aVthank
p71
aVwant
p72
aVcould
p73
aVstart
p74
aVyear
p75
aVokay
p76
aVrealli
p77
aVsee
p78
aVtime
p79
aVmake
p80
aVwhir
p81
aVlook
p82
aVbeatbox
p83
aVapplaus
p84
aVsaid
p85
aVsay
p86
aVthink
p87
aVright
p88
aVwould
p89
aVthing
p90
aVget
p91
aVpeopl
p92
aVre
p93
aVgo
p94
aVknow
p95
aVda
p96
aVone
p97
aVlike
p98
aVlaughter
p99
aS'unk'
p100
a.