(lp0
Vindia
p1
aVfear
p2
aVcommun
p3
aVaround
p4
aVimport
p5
aVgive
p6
aVgreat
p7
aVparti
p8
aVpresid
p9
aVask
p10
aVfact
p11
aVidea
p12
aVtell
p13
aVstori
p14
aVkind
p15
aVapplaus
p16
aVback
p17
aVtogeth
p18
aVlot
p19
aVmean
p20
aVtri
p21
aVunit
p22
aVsocieti
p23
aVquestion
p24
aVgot
p25
aVsystem
p26
aVmuch
p27
aVdiffer
p28
aVnation
p29
aVsometh
p30
aVproblem
p31
aVbeliev
p32
aVwar
p33
aVgood
p34
aVinform
p35
aVtoday
p36
aVeveri
p37
aVcitizen
p38
aVlet
p39
aVpercent
p40
aVday
p41
aVtake
p42
aVlive
p43
aVwell
p44
aVgroup
p45
aVamerican
p46
aVtalk
p47
aVuse
p48
aVhappen
p49
aVfirst
p50
aVcall
p51
aVstart
p52
aVtwo
p53
aValso
p54
aVglobal
p55
aVrealli
p56
aVciti
p57
aVwomen
p58
aVmani
p59
aVeven
p60
aVsaid
p61
aVcould
p62
aVcome
p63
aVlook
p64
aVnew
p65
aVchina
p66
aVwork
p67
aVstate
p68
aVchang
p69
aVelect
p70
aVsay
p71
aVway
p72
aVright
p73
aVsee
p74
aVmake
p75
aVneed
p76
aVtime
p77
aVactual
p78
aVvote
p79
aVdemocraci
p80
aVpower
p81
aVlaughter
p82
aVknow
p83
aVgovern
p84
aVyear
p85
aVget
p86
aVwant
p87
aVthing
p88
aVpolit
p89
aVwould
p90
aVcountri
p91
aVthink
p92
aVre
p93
aVworld
p94
aVus
p95
aVlike
p96
aVgo
p97
aVone
p98
aVpeopl
p99
aS'unk'
p100
a.