(lp0
Vsweeney
p1
aVfind
p2
aVlot
p3
aVmother
p4
aVpictur
p5
aVschool
p6
aVthree
p7
aVtoday
p8
aVhand
p9
aVguy
p10
aVmade
p11
aVmani
p12
aVmuch
p13
aVthought
p14
aVwent
p15
aVand
p16
aVeverybodi
p17
aVask
p18
aVtold
p19
aVgirl
p20
aVplace
p21
aVchang
p22
aVstorytel
p23
aVlearn
p24
aVeveri
p25
aVfilm
p26
aVcreat
p27
aVstill
p28
aVkind
p29
aVput
p30
aVold
p31
aVdiffer
p32
aVimagin
p33
aVkid
p34
aVtwo
p35
aVtri
p36
aVart
p37
aVhuman
p38
aVgood
p39
aVshow
p40
aVapplaus
p41
aVsound
p42
aValso
p43
aVmean
p44
aVman
p45
aVhappen
p46
aVnever
p47
aVfirst
p48
aVsometh
p49
aVwell
p50
aVscienc
p51
aVeven
p52
aVfather
p53
aVtake
p54
aVuse
p55
aVcall
p56
aVlove
p57
aVactual
p58
aVright
p59
aVnew
p60
aVbook
p61
aVneed
p62
aVtalk
p63
aVlittl
p64
aVback
p65
aVfeel
p66
aVday
p67
aVstart
p68
aVcome
p69
aVlive
p70
aVsee
p71
aVgot
p72
aVway
p73
aVrealli
p74
aVwork
p75
aVtell
p76
aVlook
p77
aVcould
p78
aVwant
p79
aVworld
p80
aVus
p81
aVthink
p82
aVthing
p83
aVsaid
p84
aVsay
p85
aVmake
p86
aVtime
p87
aVlife
p88
aVget
p89
aVyear
p90
aVre
p91
aVwould
p92
aVgo
p93
aVlaughter
p94
aVpeopl
p95
aVknow
p96
aVstori
p97
aVone
p98
aVlike
p99
aS'unk'
p100
a.