(lp0
Vplace
p1
aVtrust
p2
aVtoday
p3
aVtechnolog
p4
aVorgan
p5
aVglobal
p6
aVmade
p7
aVask
p8
aVspace
p9
aVmap
p10
aVcompani
p11
aVshow
p12
aVfind
p13
aVinform
p14
aVexperi
p15
aVproject
p16
aVtogeth
p17
aVplay
p18
aVgood
p19
aVtalk
p20
aVtell
p21
aVmachin
p22
aVshare
p23
aVsystem
p24
aVtri
p25
aVback
p26
aVlittl
p27
aVhappen
p28
aVaround
p29
aVmuch
p30
aVbf
p31
aVdanc
p32
aVproblem
p33
aVdh
p34
aVlove
p35
aVlot
p36
aVstori
p37
aVcall
p38
aVlet
p39
aVsaid
p40
aVlearn
p41
aVhelp
p42
aVmani
p43
aVeveri
p44
aVgot
p45
aVwell
p46
aVtwo
p47
aVlive
p48
aVcommun
p49
aVday
p50
aValso
p51
aVidea
p52
aVsometh
p53
aVkind
p54
aVsay
p55
aVchang
p56
aVciti
p57
aVeven
p58
aVfirst
p59
aVcome
p60
aVdiffer
p61
aVhuman
p62
aVcountri
p63
aVtake
p64
aVcreat
p65
aVdata
p66
aVbuild
p67
aVdesign
p68
aVnew
p69
aVstart
p70
aVneed
p71
aVactual
p72
aVlook
p73
aVright
p74
aVway
p75
aVwant
p76
aVknow
p77
aVuse
p78
aVrealli
p79
aVcould
p80
aVlaughter
p81
aVworld
p82
aVwould
p83
aVyear
p84
aVapplaus
p85
aVget
p86
aVsee
p87
aVwork
p88
aVmake
p89
aVthink
p90
aVthing
p91
aVtime
p92
aVus
p93
aVre
p94
aVgo
p95
aVone
p96
aVlike
p97
aVpeopl
p98
aVmusic
p99
aS'unk'
p100
a.