(lp0
Vtoday
p1
aVlife
p2
aVbabi
p3
aVstate
p4
aVman
p5
aVca
p6
aVhistori
p7
aVmilk
p8
aVamerica
p9
aVgood
p10
aVfamili
p11
aVquestion
p12
aVmean
p13
aVvote
p14
aValgorithm
p15
aVstudent
p16
aVwealth
p17
aVcreat
p18
aVequal
p19
aVdiffer
p20
aVhuman
p21
aVlearn
p22
aVlot
p23
aVwoman
p24
aVpolit
p25
aVsocial
p26
aVgender
p27
aVlove
p28
aVstart
p29
aVgot
p30
aVyoung
p31
aVsometh
p32
aVsex
p33
aVnew
p34
aVday
p35
aVmuch
p36
aVtake
p37
aVfirst
p38
aVamerican
p39
aVtell
p40
aVgay
p41
aVmani
p42
aVcome
p43
aVask
p44
aVtalk
p45
aVeveri
p46
aVcompani
p47
aVuse
p48
aValso
p49
aVapplaus
p50
aVglobal
p51
aVwell
p52
aVtwo
p53
aVcall
p54
aVchang
p55
aVactual
p56
aVhealth
p57
aVgirl
p58
aVcould
p59
aVcommun
p60
aVcountri
p61
aVrace
p62
aVeven
p63
aVeduc
p64
aVstori
p65
aVwhite
p66
aVneed
p67
aVpercent
p68
aVway
p69
aVsaid
p70
aVschool
p71
aVsay
p72
aVlive
p73
aVrealli
p74
aVlook
p75
aVlaughter
p76
aVkid
p77
aVmen
p78
aVright
p79
aVmake
p80
aVsee
p81
aVthing
p82
aVget
p83
aVwant
p84
aVwork
p85
aVtime
p86
aVknow
p87
aVwould
p88
aVgo
p89
aVworld
p90
aVyear
p91
aVthink
p92
aVre
p93
aVblack
p94
aVus
p95
aVwomen
p96
aVone
p97
aVlike
p98
aVpeopl
p99
aS'unk'
p100
a.