(lp0
Vcountri
p1
aVproject
p2
aVlet
p3
aVput
p4
aVfeel
p5
aVshow
p6
aVmizzon
p7
aVtechnolog
p8
aVtri
p9
aVlot
p10
aVgood
p11
aVdiffer
p12
aVkind
p13
aVback
p14
aVtm
p15
aVteach
p16
aVteacher
p17
aVmani
p18
aVthree
p19
aVproblem
p20
aVyoung
p21
aVvideo
p22
aVboy
p23
aVold
p24
aVgot
p25
aValso
p26
aVhuman
p27
aVstudent
p28
aVhappen
p29
aVstori
p30
aVactual
p31
aVmuch
p32
aVwater
p33
aVpercent
p34
aVsometh
p35
aVchang
p36
aVtalk
p37
aVcall
p38
aVeduc
p39
aVfirst
p40
aVwell
p41
aVthank
p42
aVmother
p43
aVnew
p44
aVlove
p45
aVask
p46
aVchild
p47
aVtell
p48
aVlive
p49
aVlittl
p50
aVeveri
p51
aVright
p52
aVneed
p53
aVlife
p54
aVparent
p55
aVeven
p56
aVwork
p57
aVday
p58
aVtwo
p59
aVbrain
p60
aVcome
p61
aVwomen
p62
aVmusic
p63
aVtake
p64
aVstart
p65
aVuse
p66
aVfamili
p67
aVworld
p68
aVcould
p69
aVapplaus
p70
aVlearn
p71
aVplay
p72
aVmake
p73
aVway
p74
aVrealli
p75
aVsay
p76
aVsee
p77
aVlook
p78
aVbabi
p79
aVus
p80
aVwant
p81
aVthink
p82
aVgirl
p83
aVget
p84
aVtime
p85
aVthing
p86
aVwould
p87
aVsaid
p88
aVlaughter
p89
aVpeopl
p90
aVyear
p91
aVschool
p92
aVknow
p93
aVchildren
p94
aVone
p95
aVkid
p96
aVlike
p97
aVre
p98
aVgo
p99
aS'unk'
p100
a.