(lp0
Vbeliev
p1
aVplace
p2
aVask
p3
aVnever
p4
aVgood
p5
aVwent
p6
aVlearn
p7
aVtri
p8
aVciti
p9
aVwater
p10
aVyoung
p11
aVlittl
p12
aVanim
p13
aVmean
p14
aVlot
p15
aVdiffer
p16
aVsomeon
p17
aVtext
p18
aVsocial
p19
aVhealth
p20
aVproblem
p21
aVtoday
p22
aVlet
p23
aVmuch
p24
aVtell
p25
aVtwo
p26
aVca
p27
aVcreat
p28
aVback
p29
aVfamili
p30
aVbabi
p31
aVhuman
p32
aVpercent
p33
aVcountri
p34
aVwell
p35
aVgovern
p36
aVcommun
p37
aVapplaus
p38
aVkid
p39
aVhappen
p40
aVsometh
p41
aVfeel
p42
aVstori
p43
aVmani
p44
aVchildren
p45
aVblack
p46
aVhelp
p47
aVpatent
p48
aVlove
p49
aVsay
p50
aVschool
p51
aVgot
p52
aValso
p53
aVcall
p54
aVtake
p55
aVfirst
p56
aVeveri
p57
aVnew
p58
aVmen
p59
aVpower
p60
aVlife
p61
aVactual
p62
aVeven
p63
aVtalk
p64
aVcome
p65
aVway
p66
aVstart
p67
aVgirl
p68
aVsong
p69
aVright
p70
aVchang
p71
aVlive
p72
aVday
p73
aVsaid
p74
aVlook
p75
aVneed
p76
aVrealli
p77
aVcould
p78
aVuse
p79
aVlaughter
p80
aVsee
p81
aVmake
p82
aVwant
p83
aVwould
p84
aVthink
p85
aVwork
p86
aVworld
p87
aVthing
p88
aVtime
p89
aVyear
p90
aVget
p91
aVknow
p92
aVus
p93
aVwomen
p94
aVgo
p95
aVre
p96
aVone
p97
aVlike
p98
aVpeopl
p99
aS'unk'
p100
a.