(lp0
Vbeliev
p1
aVlet
p2
aVviolenc
p3
aVca
p4
aVblack
p5
aVplanet
p6
aVyoung
p7
aVequal
p8
aVnew
p9
aVtoday
p10
aVproblem
p11
aVcommun
p12
aVgender
p13
aVmean
p14
aVdaughter
p15
aVfemal
p16
aVfather
p17
aVhappen
p18
aVgood
p19
aVhelpless
p20
aVgive
p21
aVfamili
p22
aVlot
p23
aVsomeon
p24
aVman
p25
aVeduc
p26
aVsometh
p27
aVback
p28
aVchildren
p29
aVactual
p30
aVwar
p31
aVgot
p32
aVnever
p33
aVpm
p34
aVhelp
p35
aVmuch
p36
aVtwo
p37
aVask
p38
aValso
p39
aVpercent
p40
aVtake
p41
aVcall
p42
aVstart
p43
aVdiffer
p44
aVcountri
p45
aVuse
p46
aVwell
p47
aVtell
p48
aVcome
p49
aVsex
p50
aVbabi
p51
aVeveri
p52
aVmani
p53
aVschool
p54
aVapplaus
p55
aVfeel
p56
aVright
p57
aVlive
p58
aVchang
p59
aVeven
p60
aVlove
p61
aVmother
p62
aVrealli
p63
aVfirst
p64
aVway
p65
aVsee
p66
aVlook
p67
aVsong
p68
aVcould
p69
aVlife
p70
aVtalk
p71
aVday
p72
aVneed
p73
aVmake
p74
aVstori
p75
aVwoman
p76
aVsay
p77
aVthing
p78
aVworld
p79
aVthink
p80
aVwant
p81
aVget
p82
aVsaid
p83
aVus
p84
aVlaughter
p85
aVtime
p86
aVyear
p87
aVwork
p88
aVwould
p89
aVknow
p90
aVre
p91
aVmen
p92
aVgo
p93
aVpeopl
p94
aVgirl
p95
aVlike
p96
aVda
p97
aVone
p98
aVwomen
p99
aS'unk'
p100
a.