(lp0
Vgroup
p1
aVpart
p2
aVnew
p3
aVtechnolog
p4
aVcommun
p5
aVgood
p6
aVaround
p7
aVwoman
p8
aVnever
p9
aVbomb
p10
aVamerican
p11
aVdiffer
p12
aVwent
p13
aVfact
p14
aVsoldier
p15
aVlet
p16
aVintern
p17
aVproblem
p18
aVinform
p19
aVunit
p20
aVrefuge
p21
aVcall
p22
aVgive
p23
aVnation
p24
aVsometh
p25
aVtell
p26
aVmilitari
p27
aVciti
p28
aVtoday
p29
aVmean
p30
aVplace
p31
aVlot
p32
aVmuch
p33
aVtwo
p34
aVattack
p35
aVnonviol
p36
aVstate
p37
aVhappen
p38
aValso
p39
aVfamili
p40
aVlife
p41
aVglobal
p42
aVviolenc
p43
aVlaughter
p44
aVpeac
p45
aVkill
p46
aVimag
p47
aVchildren
p48
aVchang
p49
aVjihad
p50
aVright
p51
aVgovern
p52
aVfirst
p53
aVwell
p54
aVhuman
p55
aVlive
p56
aVstart
p57
aVgot
p58
aVback
p59
aVrealli
p60
aVtake
p61
aVweapon
p62
aVtalk
p63
aVstori
p64
aVpower
p65
aVeven
p66
aVactual
p67
aVsaid
p68
aVmani
p69
aVday
p70
aVway
p71
aVsay
p72
aVcome
p73
aVconflict
p74
aVmake
p75
aVuse
p76
aVwomen
p77
aVcould
p78
aVwork
p79
aVneed
p80
aVtime
p81
aVlook
p82
aVthing
p83
aVcountri
p84
aVsee
p85
aVget
p86
aVwant
p87
aVthink
p88
aVknow
p89
aVus
p90
aVyear
p91
aVwould
p92
aVworld
p93
aVwar
p94
aVre
p95
aVlike
p96
aVgo
p97
aVone
p98
aVpeopl
p99
aS'unk'
p100
a.