(lp0
Vprint
p1
aVgovern
p2
aVmillion
p3
aVtalk
p4
aVput
p5
aVdna
p6
aVgood
p7
aVback
p8
aVtell
p9
aVquestion
p10
aVidea
p11
aVapplaus
p12
aVca
p13
aVtri
p14
aVdevelop
p15
aVspace
p16
aVmight
p17
aVday
p18
aVpercent
p19
aVenergi
p20
aVcancer
p21
aVclimat
p22
aVaround
p23
aVmean
p24
aVpower
p25
aVlearn
p26
aVcar
p27
aVlet
p28
aVsystem
p29
aVmani
p30
aVlittl
p31
aVcall
p32
aVsometh
p33
aVeveri
p34
aVtoday
p35
aVlot
p36
aVfutur
p37
aVhappen
p38
aVmar
p39
aVglobal
p40
aVproblem
p41
aVwater
p42
aVlife
p43
aVbuild
p44
aVtwo
p45
aVcreat
p46
aVciti
p47
aVkind
p48
aVearth
p49
aVmuch
p50
aVdiffer
p51
aVfirst
p52
aVcomput
p53
aVdesign
p54
aVrobot
p55
aVstart
p56
aVcome
p57
aValso
p58
aVcountri
p59
aVlive
p60
aVeven
p61
aVsay
p62
aVwell
p63
aVgot
p64
aVtechnolog
p65
aVchang
p66
aVright
p67
aVmachin
p68
aVnew
p69
aVlaughter
p70
aVtake
p71
aVactual
p72
aVcell
p73
aVwant
p74
aVplanet
p75
aVlook
p76
aVneed
p77
aVway
p78
aVknow
p79
aVsee
p80
aVwork
p81
aVhuman
p82
aVuse
p83
aVcould
p84
aVwould
p85
aVmake
p86
aVrealli
p87
aVtime
p88
aVget
p89
aVyear
p90
aVworld
p91
aVus
p92
aVthing
p93
aVthink
p94
aVpeopl
p95
aVone
p96
aVgo
p97
aVre
p98
aVlike
p99
aS'unk'
p100
a.