(lp0
Vgenom
p1
aVcreat
p2
aVfli
p3
aVmateri
p4
aVlight
p5
aVmight
p6
aVput
p7
aVpatient
p8
aVwhale
p9
aVblood
p10
aVunderstand
p11
aVgrow
p12
aVresearch
p13
aVfound
p14
aVheart
p15
aVorgan
p16
aVshow
p17
aVhappen
p18
aVgene
p19
aVaround
p20
aVbiolog
p21
aVmean
p22
aVdrug
p23
aVsay
p24
aVgenet
p25
aVnatur
p26
aVkind
p27
aVchang
p28
aVtell
p29
aVmuch
p30
aVmolecul
p31
aVlot
p32
aVlet
p33
aVfind
p34
aVtri
p35
aVtissu
p36
aVgot
p37
aVtechnolog
p38
aVsometh
p39
aVcall
p40
aVback
p41
aVtwo
p42
aVabl
p43
aVstart
p44
aVneuron
p45
aVcome
p46
aVeven
p47
aVlittl
p48
aVmani
p49
aVfirst
p50
aVocean
p51
aVsystem
p52
aVneed
p53
aVwater
p54
aVbodi
p55
aVright
p56
aVlive
p57
aVcoral
p58
aVworld
p59
aValso
p60
aVwant
p61
aVdiseas
p62
aVnew
p63
aVtake
p64
aVwell
p65
aVdna
p66
aVbacteria
p67
aVspeci
p68
aVlaughter
p69
aVlife
p70
aVwork
p71
aVdiffer
p72
aVplant
p73
aVway
p74
aVanim
p75
aVtime
p76
aVknow
p77
aVwould
p78
aVcould
p79
aVmake
p80
aVhuman
p81
aVpeopl
p82
aVus
p83
aVactual
p84
aVuse
p85
aVthing
p86
aVyear
p87
aVget
p88
aVrealli
p89
aVthink
p90
aVcancer
p91
aVlook
p92
aVbrain
p93
aVsee
p94
aVcell
p95
aVgo
p96
aVlike
p97
aVone
p98
aVre
p99
aS'unk'
p100
a.