(lp0
Vmight
p1
aVresearch
p2
aVquestion
p3
aVput
p4
aVbuild
p5
aVlearn
p6
aVunderstand
p7
aVdna
p8
aVnatur
p9
aVidea
p10
aVtalk
p11
aVstudi
p12
aVenergi
p13
aVabl
p14
aVsaid
p15
aVgene
p16
aVspeci
p17
aVocean
p18
aVtell
p19
aVlet
p20
aVmean
p21
aVdrug
p22
aVrobot
p23
aVeveri
p24
aVday
p25
aVpercent
p26
aVbodi
p27
aVpatient
p28
aVproblem
p29
aVtri
p30
aVunivers
p31
aVlight
p32
aVdiseas
p33
aVfind
p34
aVtechnolog
p35
aVaround
p36
aVhappen
p37
aVscienc
p38
aVgot
p39
aVshow
p40
aVback
p41
aVmani
p42
aVplanet
p43
aVsystem
p44
aVlot
p45
aVanim
p46
aVcall
p47
aVmuch
p48
aVlive
p49
aVchang
p50
aVearth
p51
aVkind
p52
aVsometh
p53
aVfirst
p54
aVplant
p55
aVstart
p56
aVcome
p57
aVeven
p58
aVnew
p59
aVlittl
p60
aVwater
p61
aVsay
p62
aValso
p63
aVtwo
p64
aVneed
p65
aVright
p66
aVlife
p67
aVdiffer
p68
aVtake
p69
aVwell
p70
aVwant
p71
aVworld
p72
aVhuman
p73
aVcancer
p74
aVway
p75
aVwork
p76
aVcould
p77
aVactual
p78
aVlaughter
p79
aVmake
p80
aVwould
p81
aVrealli
p82
aVknow
p83
aVuse
p84
aVus
p85
aVtime
p86
aVcell
p87
aVthink
p88
aVlook
p89
aVget
p90
aVbrain
p91
aVyear
p92
aVthing
p93
aVpeopl
p94
aVsee
p95
aVgo
p96
aVlike
p97
aVone
p98
aVre
p99
aS'unk'
p100
a.