(lp0
Vprison
p1
aVplay
p2
aVcare
p3
aVbetter
p4
aVamerican
p5
aVrefuge
p6
aVidea
p7
aVtri
p8
aVyoung
p9
aVlittl
p10
aVaround
p11
aVstudent
p12
aVlove
p13
aVcreat
p14
aVquestion
p15
aVback
p16
aVhealth
p17
aVsocieti
p18
aVca
p19
aVkind
p20
aVfutur
p21
aVmuch
p22
aVlot
p23
aVgot
p24
aVhelp
p25
aVmean
p26
aVgood
p27
aVlearn
p28
aVfamili
p29
aVfeel
p30
aVtoday
p31
aVdanc
p32
aVapplaus
p33
aVlet
p34
aVtell
p35
aVstori
p36
aVdiffer
p37
aVhuman
p38
aVsometh
p39
aVwell
p40
aVhappen
p41
aVeveri
p42
aVask
p43
aVproblem
p44
aVcall
p45
aVtwo
p46
aVnew
p47
aVchildren
p48
aVschool
p49
aValso
p50
aVcommun
p51
aVfirst
p52
aVlife
p53
aVciti
p54
aVcountri
p55
aVtake
p56
aVtalk
p57
aVpercent
p58
aVkid
p59
aVactual
p60
aVmani
p61
aVcome
p62
aVday
p63
aVblack
p64
aVeven
p65
aVsaid
p66
aVuse
p67
aVstart
p68
aVrealli
p69
aVsocial
p70
aVlook
p71
aVgirl
p72
aVlive
p73
aVsay
p74
aVright
p75
aVchang
p76
aVcould
p77
aVsee
p78
aVway
p79
aVlaughter
p80
aVneed
p81
aVwomen
p82
aVwant
p83
aVmake
p84
aVwould
p85
aVknow
p86
aVthing
p87
aVworld
p88
aVwork
p89
aVget
p90
aVtime
p91
aVyear
p92
aVthink
p93
aVus
p94
aVgo
p95
aVre
p96
aVone
p97
aVlike
p98
aVpeopl
p99
aS'unk'
p100
a.