(lp0
Vroad
p1
aVquestion
p2
aVcountri
p3
aVfutur
p4
aVneighborhood
p5
aVask
p6
aVgreat
p7
aVshare
p8
aVgood
p9
aVlife
p10
aVgrow
p11
aVproblem
p12
aVsaid
p13
aVpark
p14
aVback
p15
aVfood
p16
aVlet
p17
aVtechnolog
p18
aVenergi
p19
aVplant
p20
aVgot
p21
aVdata
p22
aVlittl
p23
aVpublic
p24
aVdevelop
p25
aVproject
p26
aVhappen
p27
aVmean
p28
aVstreet
p29
aVshow
p30
aVflag
p31
aVurban
p32
aVcall
p33
aVsay
p34
aVfirst
p35
aVlight
p36
aVsometh
p37
aVaround
p38
aVday
p39
aVtoday
p40
aVarchitectur
p41
aVmuch
p42
aVmani
p43
aVeven
p44
aVlot
p45
aVhome
p46
aVeveri
p47
aVdiffer
p48
aVtwo
p49
aVhous
p50
aVtake
p51
aVsystem
p52
aVcome
p53
aVidea
p54
aVwell
p55
aVlaughter
p56
aVwater
p57
aVactual
p58
aVcreat
p59
aVright
p60
aVchang
p61
aVstart
p62
aValso
p63
aVcommun
p64
aVkind
p65
aVpercent
p66
aVdesign
p67
aVcar
p68
aVplace
p69
aVknow
p70
aVmap
p71
aVus
p72
aVneed
p73
aVuse
p74
aVcould
p75
aVwork
p76
aVlive
p77
aVget
p78
aVwould
p79
aVlook
p80
aVway
p81
aVwant
p82
aVworld
p83
aVsee
p84
aVtime
p85
aVthing
p86
aVmake
p87
aVrealli
p88
aVyear
p89
aVspace
p90
aVnew
p91
aVthink
p92
aVbuild
p93
aVgo
p94
aVone
p95
aVre
p96
aVlike
p97
aVpeopl
p98
aVciti
p99
aS'unk'
p100
a.