(lp0
Vmen
p1
aVwoman
p2
aVdream
p3
aVbeliev
p4
aVhistori
p5
aVexperi
p6
aVman
p7
aVshow
p8
aVface
p9
aVactual
p10
aVhealth
p11
aVfriend
p12
aVyoung
p13
aVnever
p14
aVgot
p15
aVkind
p16
aVvote
p17
aVaround
p18
aVgood
p19
aVpolit
p20
aVmuch
p21
aVlet
p22
aVlittl
p23
aVtri
p24
aVquestion
p25
aVnew
p26
aVcreat
p27
aVsex
p28
aVamerican
p29
aVback
p30
aVlot
p31
aVca
p32
aVkid
p33
aVmean
p34
aVvoic
p35
aVsometh
p36
aVwell
p37
aVsocial
p38
aVchang
p39
aVlearn
p40
aVperson
p41
aVeveri
p42
aVschool
p43
aVtalk
p44
aVcommun
p45
aVtake
p46
aVtell
p47
aVcountri
p48
aVfirst
p49
aVdiffer
p50
aVcall
p51
aVfamili
p52
aVlove
p53
aVstori
p54
aVapplaus
p55
aVcome
p56
aVfeel
p57
aVday
p58
aVtwo
p59
aVstart
p60
aVmani
p61
aVask
p62
aVuse
p63
aValso
p64
aVsaid
p65
aVlook
p66
aVeven
p67
aVafrican
p68
aVdanc
p69
aVblack
p70
aVrealli
p71
aVlife
p72
aVhuman
p73
aVright
p74
aVsay
p75
aVway
p76
aVcould
p77
aVneed
p78
aVworld
p79
aVsee
p80
aVwant
p81
aVlive
p82
aVget
p83
aVwork
p84
aVmake
p85
aVthing
p86
aVwomen
p87
aVwould
p88
aVyear
p89
aVthink
p90
aVtime
p91
aVknow
p92
aVgo
p93
aVus
p94
aVre
p95
aVlaughter
p96
aVone
p97
aVlike
p98
aVpeopl
p99
aS'unk'
p100
a.