(lp0
Vfamili
p1
aVbrain
p2
aVchildren
p3
aVfind
p4
aVvideo
p5
aVnever
p6
aVtri
p7
aVshare
p8
aVunderstand
p9
aVexperi
p10
aVgive
p11
aVlittl
p12
aVcare
p13
aVsocial
p14
aVtoday
p15
aVlanguag
p16
aVinform
p17
aVcreat
p18
aVquestion
p19
aVca
p20
aVgot
p21
aVcountri
p22
aVlearn
p23
aVgovern
p24
aVapplaus
p25
aVback
p26
aVaround
p27
aVmuch
p28
aVlot
p29
aVperson
p30
aVdesign
p31
aVhelp
p32
aVkind
p33
aVeveri
p34
aVgirl
p35
aVask
p36
aVtechnolog
p37
aVgood
p38
aVhappen
p39
aVsound
p40
aVnew
p41
aVdiffer
p42
aVcommun
p43
aVmean
p44
aVcome
p45
aVtake
p46
aVmani
p47
aVwell
p48
aValso
p49
aVsometh
p50
aVidea
p51
aVlet
p52
aVcall
p53
aVwomen
p54
aVtwo
p55
aVlife
p56
aVtell
p57
aVlove
p58
aVhuman
p59
aVlive
p60
aVfeel
p61
aVfirst
p62
aVstart
p63
aVday
p64
aVeven
p65
aVchang
p66
aVword
p67
aVactual
p68
aVstori
p69
aVsaid
p70
aVlook
p71
aVwork
p72
aVdata
p73
aVsay
p74
aVright
p75
aVtalk
p76
aVsee
p77
aVneed
p78
aVcould
p79
aVyear
p80
aVrealli
p81
aVway
p82
aVuse
p83
aVwant
p84
aVwould
p85
aVmake
p86
aVknow
p87
aVworld
p88
aVthink
p89
aVget
p90
aVthing
p91
aVtime
p92
aVgo
p93
aVus
p94
aVlaughter
p95
aVre
p96
aVone
p97
aVlike
p98
aVpeopl
p99
aS'unk'
p100
a.