(lp0
Vgood
p1
aVcommun
p2
aVlove
p3
aVplay
p4
aVpart
p5
aVnumber
p6
aVhelp
p7
aVeveri
p8
aVtalk
p9
aVpolit
p10
aVput
p11
aVdinosaur
p12
aVmade
p13
aVdanc
p14
aVscienc
p15
aVvote
p16
aVtri
p17
aVshow
p18
aVgreat
p19
aVamerican
p20
aVfound
p21
aVquestion
p22
aVproblem
p23
aVmean
p24
aVpaint
p25
aVlet
p26
aVlot
p27
aVair
p28
aVbeliev
p29
aVtell
p30
aVfind
p31
aVhappen
p32
aVwater
p33
aVapplaus
p34
aVwomen
p35
aVhistori
p36
aVgot
p37
aVlittl
p38
aVcenturi
p39
aVmuch
p40
aVday
p41
aVstart
p42
aVtwo
p43
aVback
p44
aVcomput
p45
aVsystem
p46
aVtoday
p47
aVneed
p48
aVidea
p49
aVdesign
p50
aVstori
p51
aVlife
p52
aVsometh
p53
aVcountri
p54
aVchang
p55
aVsaid
p56
aVtechnolog
p57
aVlive
p58
aVdiffer
p59
aVeven
p60
aVmani
p61
aVkind
p62
aVcall
p63
aVhuman
p64
aValso
p65
aVwell
p66
aVright
p67
aVsay
p68
aVtake
p69
aVblue
p70
aVfirst
p71
aVwant
p72
aVcome
p73
aVcould
p74
aVactual
p75
aVuse
p76
aVnew
p77
aVmake
p78
aVway
p79
aVrealli
p80
aVget
p81
aVwork
p82
aVlook
p83
aVsee
p84
aVlaughter
p85
aVmusic
p86
aVknow
p87
aVwould
p88
aVworld
p89
aVthing
p90
aVus
p91
aVthink
p92
aVre
p93
aVyear
p94
aVtime
p95
aVpeopl
p96
aVgo
p97
aVone
p98
aVlike
p99
aS'unk'
p100
a.