(lp0
Vstori
p1
aVback
p2
aVlie
p3
aVbetter
p4
aVschool
p5
aVfact
p6
aVthree
p7
aVcreat
p8
aVeveri
p9
aVgot
p10
aVmarshmallow
p11
aVvalu
p12
aVfind
p13
aVtri
p14
aVproblem
p15
aVfamili
p16
aVstudent
p17
aVsocial
p18
aVday
p19
aVlet
p20
aVsuccess
p21
aVhelp
p22
aVmind
p23
aVplay
p24
aVmani
p25
aVlittl
p26
aVcall
p27
aVlove
p28
aVexperi
p29
aVquestion
p30
aVlot
p31
aVmean
p32
aVgive
p33
aVstart
p34
aVfirst
p35
aVgame
p36
aVkind
p37
aVmoral
p38
aVhappen
p39
aVmoney
p40
aVmemori
p41
aValso
p42
aVlearn
p43
aVstress
p44
aVemot
p45
aVcome
p46
aVperson
p47
aVkid
p48
aVtell
p49
aVself
p50
aVtake
p51
aVeven
p52
aVtalk
p53
aVpercent
p54
aVstudi
p55
aVask
p56
aVsometh
p57
aVworld
p58
aVhuman
p59
aVlive
p60
aVchang
p61
aVfeel
p62
aVneed
p63
aVmuch
p64
aVright
p65
aVtwo
p66
aVgood
p67
aVdiffer
p68
aVcould
p69
aVuse
p70
aVwell
p71
aVsaid
p72
aVlife
p73
aVchildren
p74
aVbrain
p75
aVhappi
p76
aVsay
p77
aVactual
p78
aVwork
p79
aVmake
p80
aVlook
p81
aVway
p82
aVrealli
p83
aVwould
p84
aVsee
p85
aVus
p86
aVyear
p87
aVwant
p88
aVtime
p89
aVknow
p90
aVlaughter
p91
aVget
p92
aVthing
p93
aVthink
p94
aVgo
p95
aVlike
p96
aVone
p97
aVre
p98
aVpeopl
p99
aS'unk'
p100
a.