(lp0
Vdevelop
p1
aVplace
p2
aVsaid
p3
aVfli
p4
aVproject
p5
aVshow
p6
aVdna
p7
aVhelp
p8
aVinnov
p9
aVpercent
p10
aVmade
p11
aVtoday
p12
aVback
p13
aVorgan
p14
aVhappen
p15
aVcompani
p16
aVenergi
p17
aVdata
p18
aVciti
p19
aVabl
p20
aVend
p21
aVlearn
p22
aVaround
p23
aVidea
p24
aVtri
p25
aVmean
p26
aVbodi
p27
aVmani
p28
aVbabi
p29
aVlittl
p30
aVcomput
p31
aVlife
p32
aVday
p33
aVeveri
p34
aVproduct
p35
aVlet
p36
aVmuch
p37
aVlot
p38
aVgot
p39
aVlive
p40
aVkind
p41
aVcome
p42
aVsay
p43
aVdrug
p44
aVcall
p45
aVsometh
p46
aVguitar
p47
aVtwo
p48
aVdiffer
p49
aVsystem
p50
aVchang
p51
aVmachin
p52
aVeven
p53
aVrobot
p54
aVbuild
p55
aVapplaus
p56
aVbrain
p57
aVproblem
p58
aVtechnolog
p59
aVcreat
p60
aVright
p61
aValso
p62
aVwell
p63
aVfirst
p64
aVnew
p65
aVdesign
p66
aVwant
p67
aVtake
p68
aVneed
p69
aVcancer
p70
aVknow
p71
aVhuman
p72
aVactual
p73
aVlook
p74
aVlaughter
p75
aVway
p76
aVstart
p77
aVwould
p78
aVmusic
p79
aVworld
p80
aVrealli
p81
aVus
p82
aVwork
p83
aVcell
p84
aVwater
p85
aVsee
p86
aVcould
p87
aVyear
p88
aVthing
p89
aVget
p90
aVtime
p91
aVthink
p92
aVmake
p93
aVuse
p94
aVpeopl
p95
aVgo
p96
aVone
p97
aVre
p98
aVlike
p99
aS'unk'
p100
a.