(lp0
Vmoney
p1
aVgirl
p2
aVfamili
p3
aVfact
p4
aVtell
p5
aVlittl
p6
aVput
p7
aVask
p8
aVchildren
p9
aVplace
p10
aVidea
p11
aVcommun
p12
aVapplaus
p13
aVmillion
p14
aVmean
p15
aVafrica
p16
aVca
p17
aVkind
p18
aVpolit
p19
aVhelp
p20
aVcreat
p21
aVchina
p22
aVdevelop
p23
aVgive
p24
aVhealth
p25
aVtri
p26
aVaround
p27
aVfood
p28
aVpower
p29
aVsometh
p30
aVciti
p31
aVtoday
p32
aVback
p33
aVdiffer
p34
aVsystem
p35
aVgood
p36
aVstate
p37
aVhuman
p38
aVschool
p39
aVcall
p40
aVgot
p41
aVtalk
p42
aVproblem
p43
aVlot
p44
aVgovern
p45
aVeveri
p46
aVwar
p47
aVmuch
p48
aVhappen
p49
aVlife
p50
aVlet
p51
aVfirst
p52
aVnew
p53
aVstori
p54
aVtwo
p55
aVglobal
p56
aVmani
p57
aVlaughter
p58
aValso
p59
aVday
p60
aVeven
p61
aVstart
p62
aVlive
p63
aVwell
p64
aVwater
p65
aVsaid
p66
aVpercent
p67
aVtake
p68
aVright
p69
aVcome
p70
aVactual
p71
aVsay
p72
aVwomen
p73
aVchang
p74
aVcould
p75
aVway
p76
aVrealli
p77
aVuse
p78
aVlook
p79
aVmake
p80
aVsee
p81
aVtime
p82
aVneed
p83
aVwork
p84
aVwant
p85
aVthing
p86
aVknow
p87
aVwould
p88
aVus
p89
aVcountri
p90
aVget
p91
aVthink
p92
aVyear
p93
aVlike
p94
aVworld
p95
aVre
p96
aVgo
p97
aVone
p98
aVpeopl
p99
aS'unk'
p100
a.