(lp0
Vand
p1
aVyoung
p2
aVcare
p3
aVart
p4
aVtri
p5
aVsometh
p6
aVimport
p7
aVhappen
p8
aVcame
p9
aVgovern
p10
aVgood
p11
aVlot
p12
aVplant
p13
aVshow
p14
aVwent
p15
aVproblem
p16
aVwater
p17
aVdevelop
p18
aVtoday
p19
aVchang
p20
aVdiffer
p21
aVaround
p22
aVwar
p23
aVaid
p24
aVbabi
p25
aVwomen
p26
aVeveri
p27
aVeven
p28
aVgot
p29
aVfarmer
p30
aVlove
p31
aVbuild
p32
aVtell
p33
aVman
p34
aVnew
p35
aVmuch
p36
aVmother
p37
aVhuman
p38
aVciti
p39
aVtwo
p40
aVplace
p41
aVapplaus
p42
aVwell
p43
aVmani
p44
aVcall
p45
aVlife
p46
aVback
p47
aVright
p48
aVhelp
p49
aVsaid
p50
aVdanc
p51
aVhiv
p52
aVschool
p53
aVlive
p54
aValso
p55
aVpercent
p56
aVfirst
p57
aVtalk
p58
aVtake
p59
aVsay
p60
aVcreat
p61
aVactual
p62
aVca
p63
aVday
p64
aVway
p65
aVcome
p66
aVstart
p67
aVhealth
p68
aVneed
p69
aVrealli
p70
aVlaughter
p71
aVcould
p72
aVlook
p73
aVcommun
p74
aVmake
p75
aVuse
p76
aVcountri
p77
aVget
p78
aVwant
p79
aVsong
p80
aVthink
p81
aVwork
p82
aVthing
p83
aVwould
p84
aVstori
p85
aVsee
p86
aVwk
p87
aVknow
p88
aVtime
p89
aVafrican
p90
aVus
p91
aVyear
p92
aVre
p93
aVworld
p94
aVgo
p95
aVone
p96
aVlike
p97
aVafrica
p98
aVpeopl
p99
aS'unk'
p100
a.