(lp0
Vmight
p1
aVpower
p2
aVfind
p3
aVsystem
p4
aVstate
p5
aVwar
p6
aVcompani
p7
aVgirl
p8
aVtri
p9
aVpolit
p10
aVlearn
p11
aVplace
p12
aVquestion
p13
aVca
p14
aVperson
p15
aVtell
p16
aVlittl
p17
aVback
p18
aVtoday
p19
aVaround
p20
aVbuild
p21
aVamerican
p22
aVhappen
p23
aVlet
p24
aVhelp
p25
aVcreat
p26
aVhealth
p27
aVgood
p28
aVapplaus
p29
aVkind
p30
aVgovern
p31
aVlove
p32
aVdata
p33
aVask
p34
aVmuch
p35
aVdiffer
p36
aVmean
p37
aVproblem
p38
aVstori
p39
aVlot
p40
aVsocial
p41
aVpercent
p42
aVfeel
p43
aVsometh
p44
aVeveri
p45
aVlife
p46
aVnew
p47
aValso
p48
aVkid
p49
aVcall
p50
aVwell
p51
aVstart
p52
aVschool
p53
aVsaid
p54
aVchang
p55
aVfirst
p56
aVcome
p57
aVcommun
p58
aVtalk
p59
aVday
p60
aVtwo
p61
aVmani
p62
aVtake
p63
aVblack
p64
aVgot
p65
aVactual
p66
aVciti
p67
aVhuman
p68
aVcountri
p69
aVeven
p70
aVwomen
p71
aVrealli
p72
aVuse
p73
aVlive
p74
aVright
p75
aVcould
p76
aVsay
p77
aVlook
p78
aVneed
p79
aVsee
p80
aVway
p81
aVwant
p82
aVthing
p83
aVmake
p84
aVwork
p85
aVworld
p86
aVyear
p87
aVlaughter
p88
aVknow
p89
aVtime
p90
aVwould
p91
aVthink
p92
aVget
p93
aVus
p94
aVgo
p95
aVone
p96
aVre
p97
aVlike
p98
aVpeopl
p99
aS'unk'
p100
a.