(lp0
Vcommun
p1
aVdream
p2
aVmental
p3
aVkind
p4
aVold
p5
aVage
p6
aVidea
p7
aVhum
p8
aVhappen
p9
aVgoal
p10
aVhealth
p11
aVlittl
p12
aVbrain
p13
aVwent
p14
aVhuman
p15
aVlet
p16
aVcreat
p17
aVperson
p18
aVthree
p19
aVsleep
p20
aVgive
p21
aVplay
p22
aVaround
p23
aVdisabl
p24
aVstudi
p25
aVactual
p26
aVdiffer
p27
aVbetter
p28
aVmuch
p29
aVnever
p30
aVeduc
p31
aVfear
p32
aVgood
p33
aValso
p34
aVgot
p35
aVtri
p36
aVnew
p37
aVwalk
p38
aVmean
p39
aVhour
p40
aVtell
p41
aVback
p42
aVstudent
p43
aVpercent
p44
aVuse
p45
aVlot
p46
aVchang
p47
aVcome
p48
aVcall
p49
aVtwo
p50
aVmani
p51
aVwell
p52
aVtalk
p53
aVfirst
p54
aVapplaus
p55
aVhelp
p56
aVsometh
p57
aVeven
p58
aVtake
p59
aVstori
p60
aVeveri
p61
aVask
p62
aVsaid
p63
aVstart
p64
aVfeel
p65
aVlove
p66
aVright
p67
aVneed
p68
aVlearn
p69
aVworld
p70
aVlook
p71
aVsee
p72
aVrealli
p73
aVwomen
p74
aVsay
p75
aVway
p76
aVmake
p77
aVlive
p78
aVday
p79
aVthing
p80
aVschool
p81
aVkid
p82
aVwant
p83
aVwork
p84
aVlife
p85
aVwould
p86
aVcould
p87
aVyear
p88
aVthink
p89
aVget
p90
aVus
p91
aVknow
p92
aVgo
p93
aVtime
p94
aVlaughter
p95
aVone
p96
aVre
p97
aVpeopl
p98
aVlike
p99
aS'unk'
p100
a.