(lp0
Vpart
p1
aVlive
p2
aVsleep
p3
aVgive
p4
aVabl
p5
aVhand
p6
aVfind
p7
aVkid
p8
aVlove
p9
aVunderstand
p10
aVexampl
p11
aVbehavior
p12
aVword
p13
aVask
p14
aVquestion
p15
aVmayb
p16
aVgot
p17
aVcontrol
p18
aVfli
p19
aVhappi
p20
aVsystem
p21
aVstudi
p22
aVactiv
p23
aVturn
p24
aVperson
p25
aVproblem
p26
aVidea
p27
aVconscious
p28
aVback
p29
aVsaid
p30
aVlot
p31
aVtell
p32
aVgood
p33
aVstart
p34
aVmemori
p35
aVsound
p36
aVmani
p37
aVtri
p38
aVmean
p39
aVneed
p40
aVbodi
p41
aVfirst
p42
aVeven
p43
aVhappen
p44
aVlittl
p45
aVlet
p46
aVmuch
p47
aVcall
p48
aVlife
p49
aVdiseas
p50
aVexperi
p51
aVtalk
p52
aValso
p53
aVchang
p54
aVplay
p55
aVfeel
p56
aVbabi
p57
aVnew
p58
aVcome
p59
aVworld
p60
aVlearn
p61
aVkind
p62
aVshow
p63
aVsometh
p64
aVwell
p65
aVmind
p66
aVtwo
p67
aVsay
p68
aVwork
p69
aVcould
p70
aVtake
p71
aVdiffer
p72
aVuse
p73
aVright
p74
aVactual
p75
aVhuman
p76
aVwould
p77
aVway
p78
aVwant
p79
aVmake
p80
aVyear
p81
aVlook
p82
aVneuron
p83
aVrealli
p84
aVlaughter
p85
aVus
p86
aVcell
p87
aVknow
p88
aVtime
p89
aVthing
p90
aVget
p91
aVsee
p92
aVthink
p93
aVpeopl
p94
aVlike
p95
aVgo
p96
aVone
p97
aVre
p98
aVbrain
p99
aS'unk'
p100
a.