(lp0
Vhelpless
p1
aVriver
p2
aVstill
p3
aVearth
p4
aVmizzon
p5
aVkind
p6
aVdiffer
p7
aVmason
p8
aVlive
p9
aVtom
p10
aVwent
p11
aVtwo
p12
aVthree
p13
aVambient
p14
aVdistort
p15
aVharvey
p16
aVmarcu
p17
aVmiller
p18
aVwork
p19
aVtm
p20
aVeveryon
p21
aVnew
p22
aVman
p23
aVnever
p24
aVback
p25
aVhear
p26
aVbabi
p27
aVday
p28
aVsorri
p29
aVsomeon
p30
aVsound
p31
aVlittl
p32
aVtake
p33
aVcome
p34
aVuse
p35
aVblack
p36
aVje
p37
aVde
p38
aVeverybodi
p39
aVtell
p40
aVfli
p41
aVlove
p42
aVway
p43
aVrealli
p44
aVfeel
p45
aVski
p46
aVcall
p47
aVlook
p48
aVever
p49
aVil
p50
aVlife
p51
aVmen
p52
aVsw
p53
aVyear
p54
aVus
p55
aVcould
p56
aVthing
p57
aVpeopl
p58
aVsaid
p59
aVsing
p60
aVlet
p61
aVwhir
p62
aVyeah
p63
aVsong
p64
aVwhistl
p65
aVthink
p66
aVmake
p67
aVsay
p68
aVwant
p69
aVmoment
p70
aVworld
p71
aVmuch
p72
aVoh
p73
aVsee
p74
aVright
p75
aVokay
p76
aVdanc
p77
aVtime
p78
aVgot
p79
aVwould
p80
aVla
p81
aVblue
p82
aVplay
p83
aVbeatbox
p84
aVget
p85
aVone
p86
aVre
p87
aVknow
p88
aVgo
p89
aVend
p90
aVda
p91
aVcheer
p92
aVstart
p93
aVthank
p94
aVguitar
p95
aVlike
p96
aVlaughter
p97
aVapplaus
p98
aVmusic
p99
aS'unk'
p100
a.