(lp0
Vtest
p1
aVkid
p2
aVtechnolog
p3
aVdevelop
p4
aVwater
p5
aVheart
p6
aVdie
p7
aVlittl
p8
aVstress
p9
aVcountri
p10
aVmother
p11
aVlet
p12
aVask
p13
aVfood
p14
aVkind
p15
aVgood
p16
aVbacteria
p17
aVtell
p18
aVlearn
p19
aVresearch
p20
aVcommun
p21
aVtri
p22
aVback
p23
aVhappen
p24
aVlot
p25
aVgot
p26
aVhelp
p27
aVstudi
p28
aVvaccin
p29
aVblood
p30
aVdoctor
p31
aVhiv
p32
aVmuch
p33
aVtalk
p34
aVbabi
p35
aVcall
p36
aVsleep
p37
aVsaid
p38
aVsystem
p39
aVsometh
p40
aVchang
p41
aVbodi
p42
aVmedic
p43
aVtwo
p44
aVright
p45
aVfirst
p46
aVeveri
p47
aVcome
p48
aVcare
p49
aVdata
p50
aVday
p51
aVsay
p52
aVpercent
p53
aValso
p54
aVmani
p55
aVnew
p56
aVeven
p57
aVstart
p58
aVlife
p59
aVproblem
p60
aVlaughter
p61
aVdiffer
p62
aVwell
p63
aVhuman
p64
aVtake
p65
aVlive
p66
aVwant
p67
aVneed
p68
aVworld
p69
aVway
p70
aVwomen
p71
aVbrain
p72
aVdrug
p73
aVwork
p74
aVmake
p75
aVactual
p76
aVrealli
p77
aVcould
p78
aVwould
p79
aVuse
p80
aVlook
p81
aVdiseas
p82
aVhealth
p83
aVus
p84
aVsee
p85
aVthing
p86
aVpatient
p87
aVknow
p88
aVthink
p89
aVtime
p90
aVget
p91
aVyear
p92
aVcancer
p93
aVcell
p94
aVgo
p95
aVlike
p96
aVone
p97
aVre
p98
aVpeopl
p99
aS'unk'
p100
a.