(lp0
Vtrust
p1
aVhome
p2
aVmade
p3
aVtoday
p4
aVidea
p5
aVtogeth
p6
aVdanc
p7
aVpublic
p8
aVshow
p9
aVquestion
p10
aVhappen
p11
aVproblem
p12
aVwar
p13
aVlove
p14
aVvote
p15
aVhealth
p16
aVlot
p17
aVgood
p18
aVmean
p19
aVcreat
p20
aVgive
p21
aVdesign
p22
aVlet
p23
aVtell
p24
aVkind
p25
aVcare
p26
aVchildren
p27
aVmuch
p28
aVlearn
p29
aVever
p30
aVshare
p31
aVgot
p32
aVhelp
p33
aVwell
p34
aVback
p35
aVapplaus
p36
aVdiffer
p37
aVfeel
p38
aVfamili
p39
aVask
p40
aVactual
p41
aVstori
p42
aVsaid
p43
aVhuman
p44
aVkid
p45
aVplace
p46
aVaround
p47
aVcall
p48
aVtwo
p49
aVfirst
p50
aVblack
p51
aVeveri
p52
aValso
p53
aVsometh
p54
aVeven
p55
aVcome
p56
aVmani
p57
aVbuild
p58
aVnew
p59
aVsocial
p60
aVlife
p61
aVwomen
p62
aVtalk
p63
aVcountri
p64
aVschool
p65
aVtake
p66
aVsay
p67
aVrealli
p68
aVright
p69
aVday
p70
aVuse
p71
aVstart
p72
aVchang
p73
aVlook
p74
aVneed
p75
aVway
p76
aVcommun
p77
aVcould
p78
aVlive
p79
aVciti
p80
aVwork
p81
aVthing
p82
aVmake
p83
aVworld
p84
aVsee
p85
aVwould
p86
aVthink
p87
aVget
p88
aVwant
p89
aVyear
p90
aVlaughter
p91
aVtime
p92
aVknow
p93
aVgo
p94
aVus
p95
aVre
p96
aVone
p97
aVlike
p98
aVpeopl
p99
aS'unk'
p100
a.