(lp0
Vgot
p1
aVhappen
p2
aVmade
p3
aVbeauti
p4
aVclimat
p5
aVsay
p6
aVhelp
p7
aVspace
p8
aVasteroid
p9
aVnumber
p10
aVtell
p11
aVspider
p12
aVmusic
p13
aVriver
p14
aVmuch
p15
aVkind
p16
aVmother
p17
aVgrow
p18
aVunderstand
p19
aVday
p20
aVcall
p21
aVaround
p22
aVgene
p23
aVair
p24
aVcome
p25
aVlot
p26
aVimag
p27
aVsometh
p28
aVmani
p29
aVplace
p30
aVfind
p31
aVcreat
p32
aVstart
p33
aVwell
p34
aVmateri
p35
aVbuild
p36
aVreceptor
p37
aVdna
p38
aVbodi
p39
aVsilk
p40
aVfirst
p41
aVlet
p42
aVback
p43
aVlittl
p44
aVsystem
p45
aVsound
p46
aVdesign
p47
aVtwo
p48
aVneed
p49
aVplanet
p50
aValso
p51
aVdiffer
p52
aVright
p53
aVeven
p54
aVanim
p55
aVnew
p56
aVwhale
p57
aVlive
p58
aVactual
p59
aVwant
p60
aVtake
p61
aVcarbon
p62
aVway
p63
aVlaughter
p64
aVknow
p65
aVwork
p66
aVlife
p67
aVchang
p68
aVworld
p69
aVearth
p70
aVtree
p71
aVhuman
p72
aVnatur
p73
aVbee
p74
aVocean
p75
aVthing
p76
aVspeci
p77
aVcould
p78
aVpeopl
p79
aVcloud
p80
aVthink
p81
aVcoral
p82
aVplant
p83
aVget
p84
aVwould
p85
aVrealli
p86
aVforest
p87
aVmake
p88
aVus
p89
aVuse
p90
aVlook
p91
aVyear
p92
aVwater
p93
aVtime
p94
aVsee
p95
aVgo
p96
aVre
p97
aVone
p98
aVlike
p99
aS'unk'
p100
a.