(lp0
Vtoday
p1
aVbuild
p2
aVthree
p3
aVcommun
p4
aVnois
p5
aVcomput
p6
aVciti
p7
aVfind
p8
aVdesign
p9
aVhelp
p10
aVgive
p11
aVplay
p12
aVaround
p13
aVidea
p14
aVquestion
p15
aVrobot
p16
aVput
p17
aVcreat
p18
aVstori
p19
aVtechnolog
p20
aVmean
p21
aVschool
p22
aVcountri
p23
aVpercent
p24
aVshow
p25
aVapplaus
p26
aVsystem
p27
aVeveri
p28
aVtell
p29
aVbrain
p30
aVproblem
p31
aVlove
p32
aVtri
p33
aVlearn
p34
aVword
p35
aVgood
p36
aVdata
p37
aVback
p38
aVgot
p39
aVlet
p40
aVask
p41
aVkind
p42
aVhappen
p43
aVfeel
p44
aVmani
p45
aVkid
p46
aVmuch
p47
aVcall
p48
aVlot
p49
aVdiffer
p50
aVeven
p51
aVhuman
p52
aVday
p53
aVnew
p54
aVfirst
p55
aVmusic
p56
aVlittl
p57
aVcome
p58
aVwater
p59
aVchang
p60
aVtwo
p61
aVlife
p62
aVlive
p63
aVsometh
p64
aVwell
p65
aValso
p66
aVtalk
p67
aVstart
p68
aVtake
p69
aVwomen
p70
aVsaid
p71
aVsay
p72
aVright
p73
aVneed
p74
aVway
p75
aVactual
p76
aVworld
p77
aVcould
p78
aVmake
p79
aVwork
p80
aVrealli
p81
aVwant
p82
aVus
p83
aVlook
p84
aVuse
p85
aVtime
p86
aVwould
p87
aVyear
p88
aVsee
p89
aVknow
p90
aVget
p91
aVlaughter
p92
aVthing
p93
aVthink
p94
aVone
p95
aVgo
p96
aVlike
p97
aVre
p98
aVpeopl
p99
aS'unk'
p100
a.