(lp0
Veye
p1
aVambient
p2
aVnever
p3
aVback
p4
aVvoic
p5
aVcolor
p6
aVeveri
p7
aVfirst
p8
aVeveryon
p9
aVcame
p10
aVje
p11
aValso
p12
aVlot
p13
aVtom
p14
aVwell
p15
aVde
p16
aVsorri
p17
aVlisten
p18
aVtell
p19
aVday
p20
aVkind
p21
aVwait
p22
aVfli
p23
aVski
p24
aVsometh
p25
aVgive
p26
aVvideo
p27
aVblack
p28
aVca
p29
aVpiec
p30
aVtake
p31
aVdiffer
p32
aVcall
p33
aVnew
p34
aVactual
p35
aVwork
p36
aVmen
p37
aVbabi
p38
aVtalk
p39
aVtwo
p40
aVil
p41
aVlive
p42
aVfeel
p43
aVlook
p44
aVokay
p45
aVmoment
p46
aVsaid
p47
aVheh
p48
aVwhir
p49
aVlittl
p50
aVlife
p51
aVwhistl
p52
aVsay
p53
aVcome
p54
aVyeah
p55
aVuse
p56
aVus
p57
aVyear
p58
aVlet
p59
aVlove
p60
aVway
p61
aVcould
p62
aVmuch
p63
aVoh
p64
aVrealli
p65
aVhear
p66
aVworld
p67
aVsee
p68
aVthink
p69
aVsing
p70
aVgot
p71
aVthing
p72
aVwant
p73
aVpeopl
p74
aVla
p75
aVright
p76
aVtime
p77
aVblue
p78
aVget
p79
aVsong
p80
aVwould
p81
aVknow
p82
aVmake
p83
aVplay
p84
aVbeatbox
p85
aVend
p86
aVre
p87
aVsound
p88
aVcheer
p89
aVone
p90
aVda
p91
aVthank
p92
aVlaughter
p93
aVstart
p94
aVgo
p95
aVguitar
p96
aVlike
p97
aVapplaus
p98
aVmusic
p99
aS'unk'
p100
a.