(lp0
Vmean
p1
aVlearn
p2
aVstem
p3
aVanim
p4
aVcommun
p5
aVlet
p6
aVdevelop
p7
aVpercent
p8
aVfind
p9
aVhappen
p10
aVkind
p11
aVblack
p12
aVbabi
p13
aVshow
p14
aVtalk
p15
aVtrial
p16
aVgene
p17
aVtest
p18
aVdie
p19
aVstudi
p20
aVchang
p21
aVlot
p22
aVback
p23
aVtell
p24
aVhelp
p25
aVmuch
p26
aVsystem
p27
aVlittl
p28
aVeveri
p29
aVgot
p30
aVsay
p31
aVtissu
p32
aVabl
p33
aVtechnolog
p34
aVsometh
p35
aVmani
p36
aVcall
p37
aVheart
p38
aVday
p39
aVdata
p40
aVlaughter
p41
aVcome
p42
aVright
p43
aVtwo
p44
aVproblem
p45
aVtumor
p46
aVcare
p47
aVfirst
p48
aVmedicin
p49
aVsaid
p50
aVeven
p51
aVstart
p52
aVwomen
p53
aVresearch
p54
aVworld
p55
aVnew
p56
aVlive
p57
aVlife
p58
aValso
p59
aVdoctor
p60
aVvaccin
p61
aVbodi
p62
aVblood
p63
aVdiffer
p64
aVwell
p65
aVtake
p66
aVmedic
p67
aVhuman
p68
aVwant
p69
aVway
p70
aVhealth
p71
aVneed
p72
aVmake
p73
aVthink
p74
aVrealli
p75
aVwork
p76
aVdiseas
p77
aVuse
p78
aVactual
p79
aVlook
p80
aVus
p81
aVtime
p82
aVthing
p83
aVbrain
p84
aVwould
p85
aVknow
p86
aVyear
p87
aVsee
p88
aVcould
p89
aVget
p90
aVdrug
p91
aVpatient
p92
aVcancer
p93
aVpeopl
p94
aVre
p95
aVgo
p96
aVlike
p97
aVone
p98
aVcell
p99
aS'unk'
p100
a.