(lp0
Vstate
p1
aVapplaus
p2
aVinnov
p3
aVshow
p4
aVciti
p5
aVhelp
p6
aVcommun
p7
aVstori
p8
aVhuman
p9
aVthree
p10
aVask
p11
aVlearn
p12
aVjob
p13
aVtoday
p14
aVgovern
p15
aVtell
p16
aVput
p17
aVmillion
p18
aVbuild
p19
aVgive
p20
aVtri
p21
aVmean
p22
aVtechnolog
p23
aVaround
p24
aVeveri
p25
aVkid
p26
aVdata
p27
aVcar
p28
aVgreat
p29
aVproblem
p30
aVlittl
p31
aVback
p32
aVlive
p33
aVlife
p34
aVwater
p35
aVtalk
p36
aVdollar
p37
aVdesign
p38
aVmani
p39
aVmarket
p40
aVgood
p41
aVmuch
p42
aVsystem
p43
aVday
p44
aVhappen
p45
aVidea
p46
aVsometh
p47
aVkind
p48
aVgot
p49
aVcall
p50
aVdiffer
p51
aVcreat
p52
aVsaid
p53
aVtwo
p54
aVlet
p55
aValso
p56
aVeven
p57
aVfirst
p58
aVcountri
p59
aVcome
p60
aVlot
p61
aVchang
p62
aVmoney
p63
aVtake
p64
aVbusi
p65
aVstart
p66
aVpercent
p67
aVright
p68
aVwell
p69
aVnew
p70
aVsay
p71
aVproduct
p72
aVneed
p73
aVcould
p74
aVuse
p75
aVway
p76
aVsee
p77
aVlook
p78
aVus
p79
aVrealli
p80
aVcompani
p81
aVlaughter
p82
aVactual
p83
aVwould
p84
aVworld
p85
aVtime
p86
aVknow
p87
aVyear
p88
aVwant
p89
aVmake
p90
aVwork
p91
aVthing
p92
aVget
p93
aVthink
p94
aVlike
p95
aVone
p96
aVgo
p97
aVre
p98
aVpeopl
p99
aS'unk'
p100
a.