(lp0
Vgreat
p1
aVend
p2
aVthought
p3
aVman
p4
aVaround
p5
aVmade
p6
aVnever
p7
aVhuman
p8
aVca
p9
aVmen
p10
aVidea
p11
aVneed
p12
aVeveri
p13
aVgive
p14
aVput
p15
aVmean
p16
aVever
p17
aVdiffer
p18
aVtell
p19
aVhand
p20
aVfeel
p21
aVbook
p22
aVhappen
p23
aVguy
p24
aVmoment
p25
aVkind
p26
aVcreat
p27
aVlot
p28
aVthree
p29
aVeven
p30
aValso
p31
aVwell
p32
aVokay
p33
aVgame
p34
aVsing
p35
aVyeah
p36
aVlive
p37
aVtri
p38
aVoh
p39
aVtalk
p40
aVblue
p41
aVgood
p42
aVdanc
p43
aVback
p44
aVday
p45
aVnew
p46
aVsometh
p47
aVvideo
p48
aVfirst
p49
aVlet
p50
aVmuch
p51
aVshow
p52
aVcall
p53
aVbeatbox
p54
aVlife
p55
aVtwo
p56
aVrobot
p57
aVtake
p58
aVlove
p59
aVstori
p60
aVsound
p61
aVactual
p62
aVsong
p63
aVsaid
p64
aVlittl
p65
aVgot
p66
aVwork
p67
aVuse
p68
aVda
p69
aVcome
p70
aVway
p71
aVus
p72
aVthank
p73
aVsay
p74
aVyear
p75
aVworld
p76
aVcould
p77
aVright
p78
aVplay
p79
aVstart
p80
aVrealli
p81
aVlook
p82
aVwant
p83
aVsee
p84
aVthink
p85
aVthing
p86
aVmake
p87
aVpeopl
p88
aVtime
p89
aVwould
p90
aVget
p91
aVknow
p92
aVre
p93
aVone
p94
aVgo
p95
aVlike
p96
aVlaughter
p97
aVapplaus
p98
aVmusic
p99
aS'unk'
p100
a.