(lp0
Vciti
p1
aVgroup
p2
aVtoday
p3
aVfound
p4
aVsometh
p5
aVafrica
p6
aVcountri
p7
aVearth
p8
aVbecom
p9
aVidea
p10
aVchang
p11
aVlearn
p12
aVback
p13
aVstori
p14
aVthank
p15
aVlot
p16
aVabl
p17
aVstate
p18
aVgrow
p19
aVmade
p20
aVeveri
p21
aVwell
p22
aVshow
p23
aVinform
p24
aVart
p25
aVpart
p26
aVspace
p27
aVsystem
p28
aVphysic
p29
aVcoral
p30
aVanim
p31
aVmuch
p32
aVlove
p33
aVfind
p34
aVbacteria
p35
aVproject
p36
aVmean
p37
aVplace
p38
aVplay
p39
aVcome
p40
aVdata
p41
aVtwo
p42
aVhuman
p43
aVwomen
p44
aVtechnolog
p45
aVlight
p46
aVhelp
p47
aVday
p48
aVaround
p49
aVgovern
p50
aVcommun
p51
aVnew
p52
aVfirst
p53
aVcreat
p54
aVright
p55
aVeven
p56
aVcall
p57
aVlive
p58
aVdiffer
p59
aVlife
p60
aVtake
p61
aVmani
p62
aVforest
p63
aVbodi
p64
aVplanet
p65
aVcancer
p66
aVcould
p67
aVstart
p68
aVneed
p69
aVknow
p70
aVcell
p71
aValso
p72
aVwater
p73
aVget
p74
aVbuild
p75
aVthink
p76
aVway
p77
aVactual
p78
aVlaughter
p79
aVthing
p80
aVworld
p81
aVwant
p82
aVlook
p83
aVmake
p84
aVtime
p85
aVrealli
p86
aVwork
p87
aVwould
p88
aVus
p89
aVyear
p90
aVsee
p91
aVapplaus
p92
aVgo
p93
aVuse
p94
aVpeopl
p95
aVre
p96
aVone
p97
aVlike
p98
aVmusic
p99
aS'unk'
p100
a.